; Function Attrs: nounwind uwtable
define internal noundef ptr @array_inplace_concat(ptr noundef %0, ptr noundef %1) #0 {
  %3 = getelementptr i8, ptr %0, i64 8
  %.val10 = load ptr, ptr %3, align 8, !tbaa !19
  %4 = tail call ptr @PyType_GetModuleByDef(ptr noundef %.val10, ptr noundef nonnull @arraymodule) #11
  %5 = getelementptr i8, ptr %4, i64 32
  %.val = load ptr, ptr %5, align 8, !tbaa !3
  %6 = load ptr, ptr %.val, align 8, !tbaa !12
  %7 = getelementptr i8, ptr %1, i64 8
  %.val11 = load ptr, ptr %7, align 8, !tbaa !19
  %.not.i = icmp eq ptr %.val11, %6
  br i1 %.not.i, label %PyObject_TypeCheck.exit.thread, label %PyObject_TypeCheck.exit

PyObject_TypeCheck.exit:                          ; preds = %2
  %8 = tail call i32 @PyType_IsSubtype(ptr noundef %.val11, ptr noundef %6) #11
  %.not14 = icmp eq i32 %8, 0
  br i1 %.not14, label %9, label %PyObject_TypeCheck.exit.PyObject_TypeCheck.exit.thread_crit_edge

PyObject_TypeCheck.exit.PyObject_TypeCheck.exit.thread_crit_edge: ; preds = %PyObject_TypeCheck.exit
  %.val12.pre = load ptr, ptr %.val, align 8, !tbaa !12
  br label %PyObject_TypeCheck.exit.thread

9:                                                ; preds = %PyObject_TypeCheck.exit
  %10 = load ptr, ptr @PyExc_TypeError, align 8, !tbaa !18
  %.val9 = load ptr, ptr %7, align 8, !tbaa !19
  %11 = getelementptr inbounds nuw i8, ptr %.val9, i64 24
  %12 = load ptr, ptr %11, align 8, !tbaa !35
  %13 = tail call ptr (ptr, ptr, ...) @PyErr_Format(ptr noundef %10, ptr noundef nonnull @.str.129, ptr noundef %12) #11
  br label %_Py_NewRef.exit

PyObject_TypeCheck.exit.thread:                   ; preds = %PyObject_TypeCheck.exit.PyObject_TypeCheck.exit.thread_crit_edge, %2
  %.val12 = phi ptr [ %.val12.pre, %PyObject_TypeCheck.exit.PyObject_TypeCheck.exit.thread_crit_edge ], [ %6, %2 ]
  %14 = tail call fastcc i32 @array_do_extend(ptr %.val12, ptr noundef nonnull %0, ptr noundef nonnull %1)
  %15 = icmp eq i32 %14, -1
  br i1 %15, label %_Py_NewRef.exit, label %16

16:                                               ; preds = %PyObject_TypeCheck.exit.thread
  %17 = load i32, ptr %0, align 8, !tbaa !17
  %18 = icmp slt i32 %17, 0
  br i1 %18, label %_Py_NewRef.exit, label %19

19:                                               ; preds = %16
  %20 = add nuw i32 %17, 1
  store i32 %20, ptr %0, align 8, !tbaa !17
  br label %_Py_NewRef.exit

_Py_NewRef.exit:                                  ; preds = %19, %16, %PyObject_TypeCheck.exit.thread, %9
  %.0 = phi ptr [ null, %9 ], [ null, %PyObject_TypeCheck.exit.thread ], [ %0, %16 ], [ %0, %19 ]
  ret ptr %.0
}